target datalayout = "e-m:e-p270:32:32-p271:32:32-p272:64:64-i64:64-i128:128-f80:128-n8:16:32:64-S128"
target triple = "x86_64-pc-linux-gnu"

%"class.ozz::animation::Animation" = type { float, i32, ptr, ptr, %"struct.ozz::span", %"struct.ozz::animation::Animation::TKeyframesCtrl", %"struct.ozz::animation::Animation::TKeyframesCtrl", %"struct.ozz::animation::Animation::TKeyframesCtrl", %"struct.ozz::span.3", %"struct.ozz::span.4", %"struct.ozz::span.3" }
%"struct.ozz::span" = type { ptr, i64 }
%"struct.ozz::animation::Animation::TKeyframesCtrl" = type <{ %"struct.ozz::span.0", %"struct.ozz::span.1", %"struct.ozz::span.0", %"struct.ozz::span.2", float, [4 x i8] }>
%"struct.ozz::span.1" = type { ptr, i64 }
%"struct.ozz::span.0" = type { ptr, i64 }
%"struct.ozz::span.2" = type { ptr, i64 }
%"struct.ozz::span.4" = type { ptr, i64 }
%"struct.ozz::span.3" = type { ptr, i64 }

; Function Attrs: mustprogress nounwind uwtable
define linkonce_odr dso_local noundef i64 @_ZNK3ozz4spanIjE10size_bytesEv(ptr noundef nonnull align 8 dereferenceable(16) %0) #5 comdat align 2 {
  %2 = alloca ptr, align 8
  store ptr %0, ptr %2, align 8, !tbaa !86
  %3 = load ptr, ptr %2, align 8
  %4 = getelementptr inbounds nuw %"struct.ozz::span.2", ptr %3, i32 0, i32 1
  %5 = load i64, ptr %4, align 8, !tbaa !89
  %6 = mul i64 %5, 4
  ret i64 %6
}

; Function Attrs: mustprogress nounwind uwtable
define linkonce_odr dso_local noundef i64 @_ZNK3ozz4spanItE10size_bytesEv(ptr noundef nonnull align 8 dereferenceable(16) %0) #5 comdat align 2 {
  %2 = alloca ptr, align 8
  store ptr %0, ptr %2, align 8, !tbaa !90
  %3 = load ptr, ptr %2, align 8
  %4 = getelementptr inbounds nuw %"struct.ozz::span.1", ptr %3, i32 0, i32 1
  %5 = load i64, ptr %4, align 8, !tbaa !93
  %6 = mul i64 %5, 2
  ret i64 %6
}

; Function Attrs: mustprogress nounwind uwtable
define linkonce_odr dso_local noundef i64 @_ZNK3ozz4spanIhE10size_bytesEv(ptr noundef nonnull align 8 dereferenceable(16) %0) #5 comdat align 2 {
  %2 = alloca ptr, align 8
  store ptr %0, ptr %2, align 8, !tbaa !82
  %3 = load ptr, ptr %2, align 8
  %4 = getelementptr inbounds nuw %"struct.ozz::span.0", ptr %3, i32 0, i32 1
  %5 = load i64, ptr %4, align 8, !tbaa !85
  %6 = mul i64 %5, 1
  ret i64 %6
}

; Function Attrs: mustprogress nounwind uwtable
define linkonce_odr dso_local noundef i64 @_ZNK3ozz4spanINS_9animation8internal13QuaternionKeyEE10size_bytesEv(ptr noundef nonnull align 8 dereferenceable(16) %0) #5 comdat align 2 {
  %2 = alloca ptr, align 8
  store ptr %0, ptr %2, align 8, !tbaa !41
  %3 = load ptr, ptr %2, align 8
  %4 = getelementptr inbounds nuw %"struct.ozz::span.4", ptr %3, i32 0, i32 1
  %5 = load i64, ptr %4, align 8, !tbaa !44
  %6 = mul i64 %5, 6
  ret i64 %6
}

; Function Attrs: mustprogress nounwind uwtable
define linkonce_odr dso_local noundef i64 @_ZNK3ozz4spanINS_9animation8internal9Float3KeyEE10size_bytesEv(ptr noundef nonnull align 8 dereferenceable(16) %0) #5 comdat align 2 {
  %2 = alloca ptr, align 8
  store ptr %0, ptr %2, align 8, !tbaa !37
  %3 = load ptr, ptr %2, align 8
  %4 = getelementptr inbounds nuw %"struct.ozz::span.3", ptr %3, i32 0, i32 1
  %5 = load i64, ptr %4, align 8, !tbaa !40
  %6 = mul i64 %5, 6
  ret i64 %6
}

; Function Attrs: mustprogress uwtable
define linkonce_odr dso_local noundef i64 @_ZNK3ozz9animation9Animation14TKeyframesCtrlILb0EE10size_bytesEv(ptr noundef nonnull align 8 dereferenceable(68) %0) #4 comdat align 2 {
  %2 = alloca ptr, align 8
  store ptr %0, ptr %2, align 8, !tbaa !34
  %3 = load ptr, ptr %2, align 8
  %4 = getelementptr inbounds nuw %"struct.ozz::animation::Animation::TKeyframesCtrl", ptr %3, i32 0, i32 0
  %5 = call noundef i64 @_ZNK3ozz4spanIhE10size_bytesEv(ptr noundef nonnull align 8 dereferenceable(16) %4)
  %6 = getelementptr inbounds nuw %"struct.ozz::animation::Animation::TKeyframesCtrl", ptr %3, i32 0, i32 1
  %7 = call noundef i64 @_ZNK3ozz4spanItE10size_bytesEv(ptr noundef nonnull align 8 dereferenceable(16) %6)
  %8 = add i64 %5, %7
  %9 = getelementptr inbounds nuw %"struct.ozz::animation::Animation::TKeyframesCtrl", ptr %3, i32 0, i32 2
  %10 = call noundef i64 @_ZNK3ozz4spanIhE10size_bytesEv(ptr noundef nonnull align 8 dereferenceable(16) %9)
  %11 = add i64 %8, %10
  %12 = getelementptr inbounds nuw %"struct.ozz::animation::Animation::TKeyframesCtrl", ptr %3, i32 0, i32 3
  %13 = call noundef i64 @_ZNK3ozz4spanIjE10size_bytesEv(ptr noundef nonnull align 8 dereferenceable(16) %12)
  %14 = add i64 %11, %13
  ret i64 %14
}

; Function Attrs: mustprogress nounwind uwtable
define linkonce_odr dso_local noundef i64 @_ZNK3ozz4spanIfE10size_bytesEv(ptr noundef nonnull align 8 dereferenceable(16) %0) #5 comdat align 2 {
  %2 = alloca ptr, align 8
  store ptr %0, ptr %2, align 8, !tbaa !30
  %3 = load ptr, ptr %2, align 8
  %4 = getelementptr inbounds nuw %"struct.ozz::span", ptr %3, i32 0, i32 1
  %5 = load i64, ptr %4, align 8, !tbaa !33
  %6 = mul i64 %5, 4
  ret i64 %6
}

; Function Attrs: mustprogress uwtable
define dso_local noundef i64 @_ZNK3ozz9animation9Animation4sizeEv(ptr noundef nonnull align 8 dereferenceable(304) %0) #4 align 2 {
  %2 = alloca ptr, align 8
  %3 = alloca i64, align 8
  store ptr %0, ptr %2, align 8, !tbaa !4
  %4 = load ptr, ptr %2, align 8
  call void @llvm.lifetime.start.p0(i64 8, ptr %3) #3
  %5 = getelementptr inbounds nuw %"class.ozz::animation::Animation", ptr %4, i32 0, i32 4
  %6 = call noundef i64 @_ZNK3ozz4spanIfE10size_bytesEv(ptr noundef nonnull align 8 dereferenceable(16) %5)
  %7 = add i64 304, %6
  %8 = getelementptr inbounds nuw %"class.ozz::animation::Animation", ptr %4, i32 0, i32 5
  %9 = call noundef i64 @_ZNK3ozz9animation9Animation14TKeyframesCtrlILb0EE10size_bytesEv(ptr noundef nonnull align 8 dereferenceable(68) %8)
  %10 = add i64 %7, %9
  %11 = getelementptr inbounds nuw %"class.ozz::animation::Animation", ptr %4, i32 0, i32 6
  %12 = call noundef i64 @_ZNK3ozz9animation9Animation14TKeyframesCtrlILb0EE10size_bytesEv(ptr noundef nonnull align 8 dereferenceable(68) %11)
  %13 = add i64 %10, %12
  %14 = getelementptr inbounds nuw %"class.ozz::animation::Animation", ptr %4, i32 0, i32 7
  %15 = call noundef i64 @_ZNK3ozz9animation9Animation14TKeyframesCtrlILb0EE10size_bytesEv(ptr noundef nonnull align 8 dereferenceable(68) %14)
  %16 = add i64 %13, %15
  %17 = getelementptr inbounds nuw %"class.ozz::animation::Animation", ptr %4, i32 0, i32 8
  %18 = call noundef i64 @_ZNK3ozz4spanINS_9animation8internal9Float3KeyEE10size_bytesEv(ptr noundef nonnull align 8 dereferenceable(16) %17)
  %19 = add i64 %16, %18
  %20 = getelementptr inbounds nuw %"class.ozz::animation::Animation", ptr %4, i32 0, i32 9
  %21 = call noundef i64 @_ZNK3ozz4spanINS_9animation8internal13QuaternionKeyEE10size_bytesEv(ptr noundef nonnull align 8 dereferenceable(16) %20)
  %22 = add i64 %19, %21
  %23 = getelementptr inbounds nuw %"class.ozz::animation::Animation", ptr %4, i32 0, i32 10
  %24 = call noundef i64 @_ZNK3ozz4spanINS_9animation8internal9Float3KeyEE10size_bytesEv(ptr noundef nonnull align 8 dereferenceable(16) %23)
  %25 = add i64 %22, %24
  store i64 %25, ptr %3, align 8, !tbaa !56
  %26 = load i64, ptr %3, align 8, !tbaa !56
  call void @llvm.lifetime.end.p0(i64 8, ptr %3) #3
  ret i64 %26
}