; Function Attrs: mustprogress nofree norecurse nosync nounwind willreturn memory(argmem: read) uwtable
define dso_local noundef i64 @_ZNK3ozz9animation9Animation4sizeEv(ptr noundef nonnull readonly align 8 captures(none) dereferenceable(304) %0) local_unnamed_addr #9 align 2 {
  %2 = getelementptr inbounds nuw i8, ptr %0, i64 32
  %3 = load i64, ptr %2, align 8, !tbaa !20
  %4 = getelementptr inbounds nuw i8, ptr %0, i64 48
  %5 = load i64, ptr %4, align 8, !tbaa !27
  %6 = getelementptr inbounds nuw i8, ptr %0, i64 64
  %7 = load i64, ptr %6, align 8, !tbaa !30
  %8 = getelementptr inbounds nuw i8, ptr %0, i64 80
  %9 = load i64, ptr %8, align 8, !tbaa !27
  %10 = getelementptr inbounds nuw i8, ptr %0, i64 96
  %11 = load i64, ptr %10, align 8, !tbaa !33
  %12 = getelementptr inbounds nuw i8, ptr %0, i64 120
  %13 = load i64, ptr %12, align 8, !tbaa !27
  %14 = getelementptr inbounds nuw i8, ptr %0, i64 136
  %15 = load i64, ptr %14, align 8, !tbaa !30
  %16 = getelementptr inbounds nuw i8, ptr %0, i64 152
  %17 = load i64, ptr %16, align 8, !tbaa !27
  %18 = getelementptr inbounds nuw i8, ptr %0, i64 168
  %19 = load i64, ptr %18, align 8, !tbaa !33
  %20 = getelementptr inbounds nuw i8, ptr %0, i64 192
  %21 = load i64, ptr %20, align 8, !tbaa !27
  %22 = getelementptr inbounds nuw i8, ptr %0, i64 208
  %23 = load i64, ptr %22, align 8, !tbaa !30
  %24 = getelementptr inbounds nuw i8, ptr %0, i64 224
  %25 = load i64, ptr %24, align 8, !tbaa !27
  %26 = getelementptr inbounds nuw i8, ptr %0, i64 240
  %27 = load i64, ptr %26, align 8, !tbaa !33
  %28 = getelementptr inbounds nuw i8, ptr %0, i64 264
  %29 = load i64, ptr %28, align 8, !tbaa !40
  %30 = getelementptr inbounds nuw i8, ptr %0, i64 280
  %31 = load i64, ptr %30, align 8, !tbaa !45
  %32 = getelementptr inbounds nuw i8, ptr %0, i64 296
  %33 = load i64, ptr %32, align 8, !tbaa !40
  %reass.add = add i64 %11, %3
  %reass.add1 = add i64 %reass.add, %19
  %reass.add2 = add i64 %reass.add1, %27
  %reass.mul = shl i64 %reass.add2, 2
  %reass.add3 = add i64 %31, %29
  %reass.add4 = add i64 %reass.add3, %33
  %reass.mul5 = mul i64 %reass.add4, 6
  %reass.add6 = add i64 %15, %7
  %reass.add7 = add i64 %reass.add6, %23
  %reass.mul8 = shl i64 %reass.add7, 1
  %34 = add i64 %5, 304
  %35 = add i64 %34, %9
  %36 = add i64 %35, %13
  %37 = add i64 %36, %17
  %38 = add i64 %37, %21
  %39 = add i64 %38, %25
  %40 = add i64 %39, %reass.mul8
  %41 = add i64 %40, %reass.mul
  %42 = add i64 %41, %reass.mul5
  ret i64 %42
}